; Function Attrs: mustprogress uwtable
define noundef i64 @_ZN7openvdb5v11_02io17bloscToStreamSizeEPKcmm(ptr noundef %data, i64 noundef %valSize, i64 noundef %numVals) local_unnamed_addr #3 personality ptr @__gxx_personality_v0 {
entry:
  %mul = mul i64 %numVals, %valSize
  %add = shl i64 %mul, 32
  %sext = add i64 %add, 68719476736
  %conv1 = ashr exact i64 %sext, 32
  %call = tail call noalias noundef nonnull ptr @_Znam(i64 noundef %conv1) #12
  %call.i6 = invoke noundef i32 @blosc_compress_ctx(i32 noundef 9, i32 noundef 1, i64 noundef 4, i64 noundef %mul, ptr noundef %data, ptr noundef nonnull %call, i64 noundef %conv1, ptr noundef nonnull @.str.21, i64 noundef %mul, i32 noundef 1)
          to label %_ZNSt10unique_ptrIA_cSt14default_deleteIS0_EED2Ev.exit unwind label %_ZNSt10unique_ptrIA_cSt14default_deleteIS0_EED2Ev.exit9

_ZNSt10unique_ptrIA_cSt14default_deleteIS0_EED2Ev.exit: ; preds = %entry
  %cmp = icmp slt i32 %call.i6, 1
  %conv4 = zext nneg i32 %call.i6 to i64
  %retval.0 = select i1 %cmp, i64 %mul, i64 %conv4
  tail call void @_ZdaPv(ptr noundef nonnull %call) #13
  ret i64 %retval.0

_ZNSt10unique_ptrIA_cSt14default_deleteIS0_EED2Ev.exit9: ; preds = %entry
  %0 = landingpad { ptr, i32 }
          cleanup
  tail call void @_ZdaPv(ptr noundef nonnull %call) #13
  resume { ptr, i32 } %0
}